#include <math.h>
#include <stdio.h>
#include <stdlib.h>
#include <string.h>

main()
{
    int n;
    scanf("%d",&n);
    printf("%d",n%10);
    if(n/10!=0)printf("%d",(n%100)/10);
    if(n/100!=0)printf("%d",(n%1000)/100);
    if(n/1000!=0)printf("%d",(n%10000)/1000);
    if(n/10000!=0)printf("%d",n/10000);
}