; ModuleID = '16/401.c'
source_filename = "16/401.c"
target datalayout = "e-m:e-p270:32:32-p271:32:32-p272:64:64-i64:64-f80:128-n8:16:32:64-S128"
target triple = "x86_64-pc-linux-gnu"

@.str = private unnamed_addr constant [3 x i8] c"%d\00", align 1

; Function Attrs: noinline nounwind uwtable
define dso_local i32 @main() #0 {
  %1 = alloca i32, align 4
  %2 = alloca i32, align 4
  store i32 0, i32* %1, align 4
  %3 = call i32 (i8*, ...) @__isoc99_scanf(i8* getelementptr inbounds ([3 x i8], [3 x i8]* @.str, i64 0, i64 0), i32* %2)
  %4 = load i32, i32* %2, align 4
  %5 = srem i32 %4, 10
  %6 = call i32 (i8*, ...) @printf(i8* getelementptr inbounds ([3 x i8], [3 x i8]* @.str, i64 0, i64 0), i32 %5)
  %7 = load i32, i32* %2, align 4
  %8 = sdiv i32 %7, 10
  %9 = icmp ne i32 %8, 0
  br i1 %9, label %10, label %15

10:                                               ; preds = %0
  %11 = load i32, i32* %2, align 4
  %12 = srem i32 %11, 100
  %13 = sdiv i32 %12, 10
  %14 = call i32 (i8*, ...) @printf(i8* getelementptr inbounds ([3 x i8], [3 x i8]* @.str, i64 0, i64 0), i32 %13)
  br label %15

15:                                               ; preds = %10, %0
  %16 = load i32, i32* %2, align 4
  %17 = sdiv i32 %16, 100
  %18 = icmp ne i32 %17, 0
  br i1 %18, label %19, label %24

19:                                               ; preds = %15
  %20 = load i32, i32* %2, align 4
  %21 = srem i32 %20, 1000
  %22 = sdiv i32 %21, 100
  %23 = call i32 (i8*, ...) @printf(i8* getelementptr inbounds ([3 x i8], [3 x i8]* @.str, i64 0, i64 0), i32 %22)
  br label %24

24:                                               ; preds = %19, %15
  %25 = load i32, i32* %2, align 4
  %26 = sdiv i32 %25, 1000
  %27 = icmp ne i32 %26, 0
  br i1 %27, label %28, label %33

28:                                               ; preds = %24
  %29 = load i32, i32* %2, align 4
  %30 = srem i32 %29, 10000
  %31 = sdiv i32 %30, 1000
  %32 = call i32 (i8*, ...) @printf(i8* getelementptr inbounds ([3 x i8], [3 x i8]* @.str, i64 0, i64 0), i32 %31)
  br label %33

33:                                               ; preds = %28, %24
  %34 = load i32, i32* %2, align 4
  %35 = sdiv i32 %34, 10000
  %36 = icmp ne i32 %35, 0
  br i1 %36, label %37, label %41

37:                                               ; preds = %33
  %38 = load i32, i32* %2, align 4
  %39 = sdiv i32 %38, 10000
  %40 = call i32 (i8*, ...) @printf(i8* getelementptr inbounds ([3 x i8], [3 x i8]* @.str, i64 0, i64 0), i32 %39)
  br label %41

41:                                               ; preds = %37, %33
  %42 = load i32, i32* %1, align 4
  ret i32 %42
}

declare dso_local i32 @__isoc99_scanf(i8*, ...) #1

declare dso_local i32 @printf(i8*, ...) #1


!llvm.module.flags = !{!0}
!llvm.ident = !{!1}

!0 = !{i32 1, !"wchar_size", i32 4}
!1 = !{!"clang version 10.0.0-4ubuntu1 "}
