; ModuleID = 'source-C-CXX/15/401.c'
source_filename = "source-C-CXX/15/401.c"
target datalayout = "e-m:e-p270:32:32-p271:32:32-p272:64:64-i64:64-f80:128-n8:16:32:64-S128"
target triple = "x86_64-pc-linux-gnu"

@.str = private unnamed_addr constant [3 x i8] c"%d\00", align 1

; Function Attrs: nofree nounwind sspstrong uwtable
define dso_local i32 @main() local_unnamed_addr #0 {
  %1 = alloca i32, align 4
  %2 = bitcast i32* %1 to i8*
  call void @llvm.lifetime.start.p0i8(i64 4, i8* nonnull %2) #3
  %3 = call i32 (i8*, ...) @__isoc99_scanf(i8* getelementptr inbounds ([3 x i8], [3 x i8]* @.str, i64 0, i64 0), i32* nonnull %1)
  %4 = load i32, i32* %1, align 4, !tbaa !5
  %5 = srem i32 %4, 10
  %6 = call i32 (i8*, ...) @printf(i8* nonnull dereferenceable(1) getelementptr inbounds ([3 x i8], [3 x i8]* @.str, i64 0, i64 0), i32 %5)
  %7 = load i32, i32* %1, align 4, !tbaa !5
  %8 = add i32 %7, 9
  %9 = icmp ult i32 %8, 19
  br i1 %9, label %17, label %10

10:                                               ; preds = %0
  %11 = srem i32 %7, 100
  %12 = trunc i32 %11 to i8
  %13 = sdiv i8 %12, 10
  %14 = sext i8 %13 to i32
  %15 = call i32 (i8*, ...) @printf(i8* nonnull dereferenceable(1) getelementptr inbounds ([3 x i8], [3 x i8]* @.str, i64 0, i64 0), i32 %14)
  %16 = load i32, i32* %1, align 4, !tbaa !5
  br label %17

17:                                               ; preds = %10, %0
  %18 = phi i32 [ %16, %10 ], [ %7, %0 ]
  %19 = add i32 %18, 99
  %20 = icmp ult i32 %19, 199
  br i1 %20, label %28, label %21

21:                                               ; preds = %17
  %22 = srem i32 %18, 1000
  %23 = trunc i32 %22 to i16
  %24 = sdiv i16 %23, 100
  %25 = sext i16 %24 to i32
  %26 = call i32 (i8*, ...) @printf(i8* nonnull dereferenceable(1) getelementptr inbounds ([3 x i8], [3 x i8]* @.str, i64 0, i64 0), i32 %25)
  %27 = load i32, i32* %1, align 4, !tbaa !5
  br label %28

28:                                               ; preds = %21, %17
  %29 = phi i32 [ %27, %21 ], [ %18, %17 ]
  %30 = add i32 %29, 999
  %31 = icmp ult i32 %30, 1999
  br i1 %31, label %39, label %32

32:                                               ; preds = %28
  %33 = srem i32 %29, 10000
  %34 = trunc i32 %33 to i16
  %35 = sdiv i16 %34, 1000
  %36 = sext i16 %35 to i32
  %37 = call i32 (i8*, ...) @printf(i8* nonnull dereferenceable(1) getelementptr inbounds ([3 x i8], [3 x i8]* @.str, i64 0, i64 0), i32 %36)
  %38 = load i32, i32* %1, align 4, !tbaa !5
  br label %39

39:                                               ; preds = %32, %28
  %40 = phi i32 [ %38, %32 ], [ %29, %28 ]
  %41 = add i32 %40, 9999
  %42 = icmp ult i32 %41, 19999
  br i1 %42, label %46, label %43

43:                                               ; preds = %39
  %44 = sdiv i32 %40, 10000
  %45 = call i32 (i8*, ...) @printf(i8* nonnull dereferenceable(1) getelementptr inbounds ([3 x i8], [3 x i8]* @.str, i64 0, i64 0), i32 %44)
  br label %46

46:                                               ; preds = %43, %39
  call void @llvm.lifetime.end.p0i8(i64 4, i8* nonnull %2) #3
  ret i32 0
}

; Function Attrs: argmemonly mustprogress nofree nosync nounwind willreturn
declare void @llvm.lifetime.start.p0i8(i64 immarg, i8* nocapture) #1

; Function Attrs: nofree nounwind
declare noundef i32 @__isoc99_scanf(i8* nocapture noundef readonly, ...) local_unnamed_addr #2

; Function Attrs: nofree nounwind
declare noundef i32 @printf(i8* nocapture noundef readonly, ...) local_unnamed_addr #2

; Function Attrs: argmemonly mustprogress nofree nosync nounwind willreturn
declare void @llvm.lifetime.end.p0i8(i64 immarg, i8* nocapture) #1


!llvm.module.flags = !{!0, !1, !2, !3}
!llvm.ident = !{!4}

!0 = !{i32 1, !"wchar_size", i32 4}
!1 = !{i32 7, !"PIC Level", i32 2}
!2 = !{i32 7, !"PIE Level", i32 2}
!3 = !{i32 7, !"uwtable", i32 1}
!4 = !{!"clang version 13.0.0"}
!5 = !{!6, !6, i64 0}
!6 = !{!"int", !7, i64 0}
!7 = !{!"omnipotent char", !8, i64 0}
!8 = !{!"Simple C/C++ TBAA"}
